	.text
	.def	@feat.00;
	.scl	3;
	.type	0;
	.endef
	.globl	@feat.00
.set @feat.00, 0
	.file	"4dyd4qbxkllaigh6"
	.def	_ZN3std10sys_common9backtrace28__rust_begin_short_backtrace17h49780211555ab4aaE;
	.scl	3;
	.type	32;
	.endef
	.section	.text,"xr",one_only,_ZN3std10sys_common9backtrace28__rust_begin_short_backtrace17h49780211555ab4aaE
	.p2align	4, 0x90
_ZN3std10sys_common9backtrace28__rust_begin_short_backtrace17h49780211555ab4aaE:
.Lfunc_begin0:
	.cv_func_id 0
	.cv_file	1 "/rustc/82e1608dfa6e0b5569232559e3d385fea5a93112\\library\\std\\src\\sys_common\\backtrace.rs" "C4A5D4C05E11C34E635F72C59013570FF93417434827AC1B475DFFE76A60E736" 3
	.cv_loc	0 1 150 0
.seh_proc _ZN3std10sys_common9backtrace28__rust_begin_short_backtrace17h49780211555ab4aaE
	subq	$56, %rsp
	.seh_stackalloc 56
	.seh_endprologue
.Ltmp0:
	.cv_file	2 "/rustc/82e1608dfa6e0b5569232559e3d385fea5a93112\\library\\core\\src\\hint.rs" "C374795C6EAEAEDBAF5D854D6718229AE25D6E7563B106BE410B37E80823BAFA" 3
	.cv_inline_site_id 1 within 0 inlined_at 1 157 0
	.cv_loc	1 2 285 0
	movq	%rcx, 48(%rsp)
.Ltmp1:
	.cv_loc	0 1 154 0
	callq	_ZN4core3ops8function6FnOnce9call_once17h357cfb3727d31516E
.Ltmp2:
	.cv_loc	1 2 286 0
	#APP
	#NO_APP
.Ltmp3:
	.cv_loc	0 1 160 0
	nop
	addq	$56, %rsp
	retq
.Ltmp4:
.Lfunc_end0:
	.seh_endproc

	.def	_ZN3std2rt10lang_start17h7825ad935cccc857E;
	.scl	2;
	.type	32;
	.endef
	.section	.text,"xr",one_only,_ZN3std2rt10lang_start17h7825ad935cccc857E
	.globl	_ZN3std2rt10lang_start17h7825ad935cccc857E
	.p2align	4, 0x90
_ZN3std2rt10lang_start17h7825ad935cccc857E:
.Lfunc_begin1:
	.cv_func_id 2
	.cv_file	3 "/rustc/82e1608dfa6e0b5569232559e3d385fea5a93112\\library\\std\\src\\rt.rs" "5512BFC0E7DA6C0DE41314702EED32D89B3B9872DF0CDF47D2D8426FC1E0EFB0" 3
	.cv_loc	2 3 160 0
.seh_proc _ZN3std2rt10lang_start17h7825ad935cccc857E
	subq	$104, %rsp
	.seh_stackalloc 104
	.seh_endprologue
	movb	%r9b, %al
	movq	%r8, %r9
	movq	%rdx, %r8
	movq	%rcx, 64(%rsp)
	movq	%r8, 72(%rsp)
	movq	%r9, 80(%rsp)
	movb	%al, 95(%rsp)
.Ltmp5:
	.cv_loc	2 3 167 0
	movq	%rcx, 56(%rsp)
	.cv_loc	2 3 166 0
	leaq	56(%rsp), %rcx
	leaq	__unnamed_1(%rip), %rdx
	movb	%al, 32(%rsp)
	callq	_ZN3std2rt19lang_start_internal17hc831afb3c24fca22E
	movq	%rax, 48(%rsp)
	movq	48(%rsp), %rax
	movq	%rax, 96(%rsp)
	.cv_loc	2 3 173 0
	addq	$104, %rsp
	retq
.Ltmp6:
.Lfunc_end1:
	.seh_endproc

	.def	_ZN3std2rt10lang_start28_$u7b$$u7b$closure$u7d$$u7d$17h9be4395291b1a4b4E;
	.scl	3;
	.type	32;
	.endef
	.section	.text,"xr",one_only,_ZN3std2rt10lang_start28_$u7b$$u7b$closure$u7d$$u7d$17h9be4395291b1a4b4E
	.p2align	4, 0x90
_ZN3std2rt10lang_start28_$u7b$$u7b$closure$u7d$$u7d$17h9be4395291b1a4b4E:
.Lfunc_begin2:
	.cv_func_id 3
	.cv_loc	3 3 167 0
.seh_proc _ZN3std2rt10lang_start28_$u7b$$u7b$closure$u7d$$u7d$17h9be4395291b1a4b4E
	subq	$56, %rsp
	.seh_stackalloc 56
	.seh_endprologue
	movq	%rcx, 40(%rsp)
.Ltmp7:
	movq	(%rcx), %rcx
	callq	_ZN3std10sys_common9backtrace28__rust_begin_short_backtrace17h49780211555ab4aaE
	callq	_ZN54_$LT$$LP$$RP$$u20$as$u20$std..process..Termination$GT$6report17h6b789ed20c8897feE
	movl	%eax, 36(%rsp)
.Ltmp8:
	.cv_file	4 "/rustc/82e1608dfa6e0b5569232559e3d385fea5a93112\\library\\std\\src\\process.rs" "DB07CDCF6B2AE3B6C0E246B388EA68C6E11F6C203D769231CC7E00703BB894FD" 3
	.cv_inline_site_id 4 within 3 inlined_at 3 167 0
	.cv_loc	4 4 1959 0
	leaq	36(%rsp), %rax
	movq	%rax, 48(%rsp)
.Ltmp9:
	.cv_file	5 "/rustc/82e1608dfa6e0b5569232559e3d385fea5a93112\\library\\std\\src\\sys\\windows\\process.rs" "C1ABDAAAA0184EC2D17176E959A7B86C17DA8C7C1BF76A9924D7B9A776C80CD4" 3
	.cv_inline_site_id 5 within 4 inlined_at 4 1959 0
	.cv_loc	5 5 764 0
	movl	36(%rsp), %eax
.Ltmp10:
	.cv_loc	3 3 167 0
	addq	$56, %rsp
	retq
.Ltmp11:
.Lfunc_end2:
	.seh_endproc

	.def	_ZN4core3fmt9Arguments9new_const17hb44072d5a12469c5E;
	.scl	3;
	.type	32;
	.endef
	.section	.text,"xr",one_only,_ZN4core3fmt9Arguments9new_const17hb44072d5a12469c5E
	.p2align	4, 0x90
_ZN4core3fmt9Arguments9new_const17hb44072d5a12469c5E:
.Lfunc_begin3:
	.cv_func_id 6
	.cv_file	6 "/rustc/82e1608dfa6e0b5569232559e3d385fea5a93112\\library\\core\\src\\fmt\\mod.rs" "CF97D6FD1BF54AE1A88B5B1A5FBA0E7974C543B31A8E2295E1C5756F6964ED84" 3
	.cv_loc	6 6 321 0
.seh_proc _ZN4core3fmt9Arguments9new_const17hb44072d5a12469c5E
	subq	$152, %rsp
	.seh_stackalloc 152
	.seh_endprologue
	movq	%r8, 40(%rsp)
	movq	%rdx, 48(%rsp)
	movq	%rcx, 56(%rsp)
	movq	%rcx, 64(%rsp)
	movq	%rdx, 136(%rsp)
	movq	%r8, 144(%rsp)
.Ltmp12:
	.cv_loc	6 6 322 0
	cmpq	$1, %r8
	ja	.LBB3_2
	.cv_loc	6 6 325 0
	movq	64(%rsp), %rax
	movq	56(%rsp), %rcx
	movq	40(%rsp), %rdx
	movq	48(%rsp), %r8
	movq	$0, 120(%rsp)
	movq	%r8, (%rcx)
	movq	%rdx, 8(%rcx)
	movq	120(%rsp), %r8
	movq	128(%rsp), %rdx
	movq	%r8, 32(%rcx)
	movq	%rdx, 40(%rcx)
	leaq	__unnamed_2(%rip), %rdx
	movq	%rdx, 16(%rcx)
	movq	$0, 24(%rcx)
	.cv_loc	6 6 326 0
	addq	$152, %rsp
	retq
.LBB3_2:
	.cv_loc	6 6 323 0
	leaq	__unnamed_3(%rip), %rdx
	leaq	72(%rsp), %rcx
	movq	%rcx, 32(%rsp)
	movl	$1, %r8d
	callq	_ZN4core3fmt9Arguments9new_const17hb44072d5a12469c5E
	movq	32(%rsp), %rcx
	leaq	__unnamed_4(%rip), %rdx
	callq	_ZN4core9panicking9panic_fmt17ha2a0d31008962eb7E
	ud2
.Ltmp13:
.Lfunc_end3:
	.seh_endproc

	.def	_ZN4core3ops8function6FnOnce40call_once$u7b$$u7b$vtable.shim$u7d$$u7d$17h77739540c47420dfE;
	.scl	3;
	.type	32;
	.endef
	.section	.text,"xr",one_only,_ZN4core3ops8function6FnOnce40call_once$u7b$$u7b$vtable.shim$u7d$$u7d$17h77739540c47420dfE
	.p2align	4, 0x90
_ZN4core3ops8function6FnOnce40call_once$u7b$$u7b$vtable.shim$u7d$$u7d$17h77739540c47420dfE:
.Lfunc_begin4:
	.cv_func_id 7
	.cv_file	7 "/rustc/82e1608dfa6e0b5569232559e3d385fea5a93112\\library\\core\\src\\ops\\function.rs" "CAE4CE214CE56E4B97C8BBCA9AEE7FA0C88F89116011AF02DADB085C50D97D75" 3
	.cv_loc	7 7 250 0
.seh_proc _ZN4core3ops8function6FnOnce40call_once$u7b$$u7b$vtable.shim$u7d$$u7d$17h77739540c47420dfE
	subq	$56, %rsp
	.seh_stackalloc 56
	.seh_endprologue
	movq	%rcx, 48(%rsp)
.Ltmp14:
	movq	(%rcx), %rcx
	callq	_ZN4core3ops8function6FnOnce9call_once17hb5f2e70fd37e49eaE
	nop
	addq	$56, %rsp
	retq
.Ltmp15:
.Lfunc_end4:
	.seh_endproc

	.def	_ZN4core3ops8function6FnOnce9call_once17h357cfb3727d31516E;
	.scl	3;
	.type	32;
	.endef
	.section	.text,"xr",one_only,_ZN4core3ops8function6FnOnce9call_once17h357cfb3727d31516E
	.p2align	4, 0x90
_ZN4core3ops8function6FnOnce9call_once17h357cfb3727d31516E:
.Lfunc_begin5:
	.cv_func_id 8
	.cv_loc	8 7 250 0
.seh_proc _ZN4core3ops8function6FnOnce9call_once17h357cfb3727d31516E
	subq	$56, %rsp
	.seh_stackalloc 56
	.seh_endprologue
	movq	%rcx, 48(%rsp)
.Ltmp16:
	callq	*%rcx
	nop
	addq	$56, %rsp
	retq
.Ltmp17:
.Lfunc_end5:
	.seh_endproc

	.def	_ZN4core3ops8function6FnOnce9call_once17hb5f2e70fd37e49eaE;
	.scl	3;
	.type	32;
	.endef
	.section	.text,"xr",one_only,_ZN4core3ops8function6FnOnce9call_once17hb5f2e70fd37e49eaE
	.p2align	4, 0x90
_ZN4core3ops8function6FnOnce9call_once17hb5f2e70fd37e49eaE:
.Lfunc_begin6:
	.cv_func_id 9
	.cv_loc	9 7 250 0
.seh_proc _ZN4core3ops8function6FnOnce9call_once17hb5f2e70fd37e49eaE
	.seh_handler __CxxFrameHandler3, @unwind, @except
	pushq	%rbp
	.seh_pushreg %rbp
	subq	$64, %rsp
	.seh_stackalloc 64
	leaq	64(%rsp), %rbp
	.seh_setframe %rbp, 64
	.seh_endprologue
	movq	$-2, -8(%rbp)
	movq	%rcx, -16(%rbp)
.Ltmp18:
	leaq	-16(%rbp), %rcx
.Ltmp20:
	callq	_ZN3std2rt10lang_start28_$u7b$$u7b$closure$u7d$$u7d$17h9be4395291b1a4b4E
.Ltmp19:
	movl	%eax, -20(%rbp)
	jmp	.LBB6_2
.LBB6_2:
	movl	-20(%rbp), %eax
	addq	$64, %rsp
	popq	%rbp
	retq
	.seh_handlerdata
	.long	($cppxdata$_ZN4core3ops8function6FnOnce9call_once17hb5f2e70fd37e49eaE)@IMGREL
	.section	.text,"xr",one_only,_ZN4core3ops8function6FnOnce9call_once17hb5f2e70fd37e49eaE
	.seh_endproc
	.def	"?dtor$1@?0?_ZN4core3ops8function6FnOnce9call_once17hb5f2e70fd37e49eaE@4HA";
	.scl	3;
	.type	32;
	.endef
	.p2align	4, 0x90
"?dtor$1@?0?_ZN4core3ops8function6FnOnce9call_once17hb5f2e70fd37e49eaE@4HA":
.seh_proc "?dtor$1@?0?_ZN4core3ops8function6FnOnce9call_once17hb5f2e70fd37e49eaE@4HA"
.LBB6_1:
	movq	%rdx, 16(%rsp)
	pushq	%rbp
	.seh_pushreg %rbp
	subq	$32, %rsp
	.seh_stackalloc 32
	leaq	64(%rdx), %rbp
	.seh_endprologue
	addq	$32, %rsp
	popq	%rbp
	retq
.Ltmp21:
.Lfunc_end6:
	.seh_handlerdata
	.section	.text,"xr",one_only,_ZN4core3ops8function6FnOnce9call_once17hb5f2e70fd37e49eaE
	.seh_endproc
	.section	.xdata,"dr",associative,_ZN4core3ops8function6FnOnce9call_once17hb5f2e70fd37e49eaE
	.p2align	2, 0x0
$cppxdata$_ZN4core3ops8function6FnOnce9call_once17hb5f2e70fd37e49eaE:
	.long	429065506
	.long	1
	.long	($stateUnwindMap$_ZN4core3ops8function6FnOnce9call_once17hb5f2e70fd37e49eaE)@IMGREL
	.long	0
	.long	0
	.long	3
	.long	($ip2state$_ZN4core3ops8function6FnOnce9call_once17hb5f2e70fd37e49eaE)@IMGREL
	.long	56
	.long	0
	.long	1
$stateUnwindMap$_ZN4core3ops8function6FnOnce9call_once17hb5f2e70fd37e49eaE:
	.long	-1
	.long	"?dtor$1@?0?_ZN4core3ops8function6FnOnce9call_once17hb5f2e70fd37e49eaE@4HA"@IMGREL
$ip2state$_ZN4core3ops8function6FnOnce9call_once17hb5f2e70fd37e49eaE:
	.long	.Lfunc_begin6@IMGREL
	.long	-1
	.long	.Ltmp18@IMGREL+1
	.long	0
	.long	.Ltmp19@IMGREL+1
	.long	-1
	.section	.text,"xr",one_only,_ZN4core3ops8function6FnOnce9call_once17hb5f2e70fd37e49eaE

	.def	_ZN4core3ptr85drop_in_place$LT$std..rt..lang_start$LT$$LP$$RP$$GT$..$u7b$$u7b$closure$u7d$$u7d$$GT$17ha0d8443e30c51badE;
	.scl	3;
	.type	32;
	.endef
	.section	.text,"xr",one_only,_ZN4core3ptr85drop_in_place$LT$std..rt..lang_start$LT$$LP$$RP$$GT$..$u7b$$u7b$closure$u7d$$u7d$$GT$17ha0d8443e30c51badE
	.p2align	4, 0x90
_ZN4core3ptr85drop_in_place$LT$std..rt..lang_start$LT$$LP$$RP$$GT$..$u7b$$u7b$closure$u7d$$u7d$$GT$17ha0d8443e30c51badE:
.Lfunc_begin7:
	.cv_func_id 10
	.cv_file	8 "/rustc/82e1608dfa6e0b5569232559e3d385fea5a93112\\library\\core\\src\\ptr\\mod.rs" "0F4EC459C04B684FC03DF3F66A7A5AD7A13A7CF33C0D6D56E8E403A72E55BF8F" 3
	.cv_loc	10 8 498 0
.seh_proc _ZN4core3ptr85drop_in_place$LT$std..rt..lang_start$LT$$LP$$RP$$GT$..$u7b$$u7b$closure$u7d$$u7d$$GT$17ha0d8443e30c51badE
	pushq	%rax
	.seh_stackalloc 8
	.seh_endprologue
	movq	%rcx, (%rsp)
.Ltmp22:
	popq	%rax
	retq
.Ltmp23:
.Lfunc_end7:
	.seh_endproc

	.def	_ZN54_$LT$$LP$$RP$$u20$as$u20$std..process..Termination$GT$6report17h6b789ed20c8897feE;
	.scl	3;
	.type	32;
	.endef
	.section	.text,"xr",one_only,_ZN54_$LT$$LP$$RP$$u20$as$u20$std..process..Termination$GT$6report17h6b789ed20c8897feE
	.p2align	4, 0x90
_ZN54_$LT$$LP$$RP$$u20$as$u20$std..process..Termination$GT$6report17h6b789ed20c8897feE:
.Lfunc_begin8:
	.cv_func_id 11
	.cv_loc	11 4 2331 0
.seh_proc _ZN54_$LT$$LP$$RP$$u20$as$u20$std..process..Termination$GT$6report17h6b789ed20c8897feE
	pushq	%rax
	.seh_stackalloc 8
	.seh_endprologue
.Ltmp24:
	.cv_loc	11 4 2333 0
	xorl	%eax, %eax
	popq	%rcx
	retq
.Ltmp25:
.Lfunc_end8:
	.seh_endproc

	.def	_ZN21rust_llvm_hir_mir_obj4main17h621e1f3403aa235bE;
	.scl	3;
	.type	32;
	.endef
	.section	.text,"xr",one_only,_ZN21rust_llvm_hir_mir_obj4main17h621e1f3403aa235bE
	.p2align	4, 0x90
_ZN21rust_llvm_hir_mir_obj4main17h621e1f3403aa235bE:
.Lfunc_begin9:
	.cv_func_id 12
	.cv_file	9 "D:\\young_linux\\11111\\Rust_Tutorial_Full_course\\23_Rust_LLVM_IR\\rust_llvm_hir_mir_obj\\src\\main.rs" "C8E0583694BB1E0188DBE28FE0D65AC1130723C55F968B6262B906C147F72549" 3
	.cv_loc	12 9 1 0
.seh_proc _ZN21rust_llvm_hir_mir_obj4main17h621e1f3403aa235bE
	subq	$88, %rsp
	.seh_stackalloc 88
	.seh_endprologue
.Ltmp26:
	.cv_loc	12 9 2 0
	leaq	40(%rsp), %rcx
	leaq	__unnamed_5(%rip), %rdx
	movl	$1, %r8d
	callq	_ZN4core3fmt9Arguments9new_const17hb44072d5a12469c5E
	leaq	40(%rsp), %rcx
	callq	_ZN3std2io5stdio6_print17h9a765ff9fdfbea9bE
	.cv_loc	12 9 3 0
	nop
	addq	$88, %rsp
	retq
.Ltmp27:
.Lfunc_end9:
	.seh_endproc

	.def	main;
	.scl	2;
	.type	32;
	.endef
	.section	.text,"xr",one_only,main
	.globl	main
	.p2align	4, 0x90
main:
.Lfunc_begin10:
.seh_proc main
	subq	$40, %rsp
	.seh_stackalloc 40
	.seh_endprologue
	movq	%rdx, %r8
	movslq	%ecx, %rdx
	leaq	_ZN21rust_llvm_hir_mir_obj4main17h621e1f3403aa235bE(%rip), %rcx
	xorl	%r9d, %r9d
	callq	_ZN3std2rt10lang_start17h7825ad935cccc857E
	nop
	addq	$40, %rsp
	retq
.Lfunc_end10:
	.seh_endproc

	.section	.rdata,"dr",one_only,__unnamed_1
	.p2align	3, 0x0
__unnamed_1:
	.quad	_ZN4core3ptr85drop_in_place$LT$std..rt..lang_start$LT$$LP$$RP$$GT$..$u7b$$u7b$closure$u7d$$u7d$$GT$17ha0d8443e30c51badE
	.asciz	"\b\000\000\000\000\000\000\000\b\000\000\000\000\000\000"
	.quad	_ZN4core3ops8function6FnOnce40call_once$u7b$$u7b$vtable.shim$u7d$$u7d$17h77739540c47420dfE
	.quad	_ZN3std2rt10lang_start28_$u7b$$u7b$closure$u7d$$u7d$17h9be4395291b1a4b4E
	.quad	_ZN3std2rt10lang_start28_$u7b$$u7b$closure$u7d$$u7d$17h9be4395291b1a4b4E

	.section	.rdata,"dr",one_only,__unnamed_2
	.p2align	3, 0x0
__unnamed_2:

	.section	.rdata,"dr",one_only,__unnamed_6
__unnamed_6:
	.ascii	"invalid args"

	.section	.rdata,"dr",one_only,__unnamed_3
	.p2align	3, 0x0
__unnamed_3:
	.quad	__unnamed_6
	.asciz	"\f\000\000\000\000\000\000"

	.section	.rdata,"dr",one_only,__unnamed_7
__unnamed_7:
	.ascii	"/rustc/82e1608dfa6e0b5569232559e3d385fea5a93112\\library\\core\\src\\fmt\\mod.rs"

	.section	.rdata,"dr",one_only,__unnamed_4
	.p2align	3, 0x0
__unnamed_4:
	.quad	__unnamed_7
	.asciz	"K\000\000\000\000\000\000\000C\001\000\000\r\000\000"

	.section	.rdata,"dr",one_only,__unnamed_8
__unnamed_8:
	.ascii	"Hello, world!\n"

	.section	.rdata,"dr",one_only,__unnamed_5
	.p2align	3, 0x0
__unnamed_5:
	.quad	__unnamed_8
	.asciz	"\016\000\000\000\000\000\000"
